target datalayout = "e-m:e-p270:32:32-p271:32:32-p272:64:64-i64:64-i128:128-f80:128-n8:16:32:64-S128"
target triple = "x86_64-pc-linux-gnu"

%struct.PREDICATELOCKTARGETTAG = type { i32, i32, i32, i32 }
%union.LWLockPadded = type { %struct.LWLock, [112 x i8] }
%struct.LWLock = type { i16, %struct.pg_atomic_uint32, %struct.proclist_head }
%struct.pg_atomic_uint32 = type { i32 }
%struct.proclist_head = type { i32, i32 }
%struct.RelationData = type { %struct.RelFileLocator, ptr, i32, i32, i8, i8, i8, i8, i8, i32, i32, i32, i32, ptr, ptr, i32, %struct.LockInfoData, ptr, ptr, ptr, ptr, ptr, i8, ptr, ptr, ptr, ptr, ptr, ptr, i32, ptr, i8, ptr, ptr, i32, i8, i32, ptr, i8, ptr, ptr, ptr, ptr, ptr, ptr, ptr, i32, ptr, ptr, ptr, ptr, ptr, ptr, ptr, ptr, ptr, ptr, ptr, ptr, ptr, ptr, ptr, ptr, ptr, ptr, ptr, i32, i8, ptr }
%struct.RelFileLocator = type { i32, i32, i32 }
%struct.LockInfoData = type { %struct.LockRelId }
%struct.LockRelId = type { i32, i32 }

@MainLWLockArray = external global ptr, align 8
@PredicateLockTargetHash = internal global ptr null, align 8

; Function Attrs: nounwind uwtable
define dso_local zeroext i1 @PageIsPredicateLocked(ptr noundef %0, i32 noundef %1) #0 {
  %3 = alloca ptr, align 8
  %4 = alloca i32, align 4
  %5 = alloca %struct.PREDICATELOCKTARGETTAG, align 4
  %6 = alloca i32, align 4
  %7 = alloca ptr, align 8
  %8 = alloca ptr, align 8
  store ptr %0, ptr %3, align 8
  store i32 %1, ptr %4, align 4
  call void @llvm.lifetime.start.p0(i64 16, ptr %5) #10
  call void @llvm.lifetime.start.p0(i64 4, ptr %6) #10
  call void @llvm.lifetime.start.p0(i64 8, ptr %7) #10
  call void @llvm.lifetime.start.p0(i64 8, ptr %8) #10
  %9 = load ptr, ptr %3, align 8
  %10 = getelementptr inbounds nuw %struct.RelationData, ptr %9, i32 0, i32 0
  %11 = getelementptr inbounds nuw %struct.RelFileLocator, ptr %10, i32 0, i32 1
  %12 = load i32, ptr %11, align 4
  %13 = getelementptr inbounds nuw %struct.PREDICATELOCKTARGETTAG, ptr %5, i32 0, i32 0
  store i32 %12, ptr %13, align 4
  %14 = load ptr, ptr %3, align 8
  %15 = getelementptr inbounds nuw %struct.RelationData, ptr %14, i32 0, i32 15
  %16 = load i32, ptr %15, align 8
  %17 = getelementptr inbounds nuw %struct.PREDICATELOCKTARGETTAG, ptr %5, i32 0, i32 1
  store i32 %16, ptr %17, align 4
  %18 = load i32, ptr %4, align 4
  %19 = getelementptr inbounds nuw %struct.PREDICATELOCKTARGETTAG, ptr %5, i32 0, i32 2
  store i32 %18, ptr %19, align 4
  %20 = getelementptr inbounds nuw %struct.PREDICATELOCKTARGETTAG, ptr %5, i32 0, i32 3
  store i32 0, ptr %20, align 4
  %21 = load ptr, ptr @PredicateLockTargetHash, align 8
  %22 = call i32 @get_hash_value(ptr noundef %21, ptr noundef %5)
  store i32 %22, ptr %6, align 4
  %23 = load ptr, ptr @MainLWLockArray, align 8
  %24 = load i32, ptr %6, align 4
  %25 = urem i32 %24, 16
  %26 = add i32 197, %25
  %27 = zext i32 %26 to i64
  %28 = getelementptr inbounds nuw %union.LWLockPadded, ptr %23, i64 %27
  store ptr %28, ptr %7, align 8
  %29 = load ptr, ptr %7, align 8
  %30 = call zeroext i1 @LWLockAcquire(ptr noundef %29, i32 noundef 1)
  %31 = load ptr, ptr @PredicateLockTargetHash, align 8
  %32 = load i32, ptr %6, align 4
  %33 = call ptr @hash_search_with_hash_value(ptr noundef %31, ptr noundef %5, i32 noundef %32, i32 noundef 0, ptr noundef null)
  store ptr %33, ptr %8, align 8
  %34 = load ptr, ptr %7, align 8
  call void @LWLockRelease(ptr noundef %34)
  %35 = load ptr, ptr %8, align 8
  %36 = icmp ne ptr %35, null
  call void @llvm.lifetime.end.p0(i64 8, ptr %8) #10
  call void @llvm.lifetime.end.p0(i64 8, ptr %7) #10
  call void @llvm.lifetime.end.p0(i64 4, ptr %6) #10
  call void @llvm.lifetime.end.p0(i64 16, ptr %5) #10
  ret i1 %36
}