; Function Attrs: nounwind uwtable
define dso_local zeroext i1 @PageIsPredicateLocked(ptr noundef readonly captures(none) %0, i32 noundef %1) local_unnamed_addr #0 {
  %3 = alloca %struct.PREDICATELOCKTARGETTAG, align 4
  call void @llvm.lifetime.start.p0(i64 16, ptr nonnull %3) #12
  %4 = getelementptr inbounds nuw i8, ptr %0, i64 4
  %5 = load i32, ptr %4, align 4
  store i32 %5, ptr %3, align 4
  %6 = getelementptr inbounds nuw i8, ptr %0, i64 72
  %7 = load i32, ptr %6, align 8
  %8 = getelementptr inbounds nuw i8, ptr %3, i64 4
  store i32 %7, ptr %8, align 4
  %9 = getelementptr inbounds nuw i8, ptr %3, i64 8
  store i32 %1, ptr %9, align 4
  %10 = getelementptr inbounds nuw i8, ptr %3, i64 12
  store i32 0, ptr %10, align 4
  %11 = load ptr, ptr @PredicateLockTargetHash, align 8
  %12 = call i32 @get_hash_value(ptr noundef %11, ptr noundef nonnull %3) #12
  %13 = load ptr, ptr @MainLWLockArray, align 8
  %14 = and i32 %12, 15
  %15 = zext nneg i32 %14 to i64
  %16 = getelementptr inbounds nuw %union.LWLockPadded, ptr %13, i64 %15
  %17 = getelementptr inbounds nuw i8, ptr %16, i64 25216
  %18 = call zeroext i1 @LWLockAcquire(ptr noundef nonnull %17, i32 noundef 1) #12
  %19 = load ptr, ptr @PredicateLockTargetHash, align 8
  %20 = call ptr @hash_search_with_hash_value(ptr noundef %19, ptr noundef nonnull %3, i32 noundef %12, i32 noundef 0, ptr noundef null) #12
  call void @LWLockRelease(ptr noundef nonnull %17) #12
  %21 = icmp ne ptr %20, null
  call void @llvm.lifetime.end.p0(i64 16, ptr nonnull %3) #12
  ret i1 %21
}